target datalayout = "e-m:e-p270:32:32-p271:32:32-p272:64:64-i64:64-i128:128-f80:128-n8:16:32:64-S128"
target triple = "x86_64-pc-linux-gnu"

%struct.GVJ_s = type { ptr, ptr, ptr, ptr, ptr, ptr, i32, ptr, ptr, ptr, ptr, i64, i64, ptr, i32, %struct.gvplugin_active_render_s, %struct.gvplugin_active_device_s, %struct.gvplugin_active_loadimage_t, ptr, %struct.pointf_s, i8, ptr, i32, ptr, i8, ptr, i32, i32, i32, %struct.point, %struct.point, %struct.point, %struct.point, %struct.point, i32, %struct.boxf, %struct.pointf_s, %struct.boxf, %struct.boxf, %struct.pointf_s, %struct.pointf_s, double, i32, %struct.pointf_s, %struct.boxf, %struct.pointf_s, %struct.pointf_s, i32, i32, %struct.box, %struct.box, %struct.pointf_s, %struct.pointf_s, %struct.pointf_s, i8, i8, i8, i8, i8, i8, %struct.pointf_s, %struct.pointf_s, ptr, ptr, ptr, ptr, ptr, ptr, i64, ptr }
%struct.gvplugin_active_render_s = type { ptr, i32, ptr, ptr }
%struct.gvplugin_active_device_s = type { ptr, i32, ptr, ptr }
%struct.gvplugin_active_loadimage_t = type { ptr, i32, ptr }
%struct.point = type { i32, i32 }
%struct.boxf = type { %struct.pointf_s, %struct.pointf_s }
%struct.box = type { %struct.point, %struct.point }
%struct.pointf_s = type { double, double }
%struct.GVC_s = type { %struct.GVCOMMON_s, ptr, i8, ptr, i32, ptr, ptr, [5 x ptr], [5 x ptr], ptr, ptr, %struct.dtdisc_s_, ptr, %struct.gvplugin_active_textlayout_s, ptr, ptr, ptr, %struct.gvplugin_active_layout_s, ptr, ptr, ptr, %struct.pointf_s, %struct.pointf_s, %struct.pointf_s, %struct.point, %struct.boxf, i32, i8, i8, i8, ptr, ptr, ptr, ptr, i32, ptr, ptr, double, ptr, %struct.color_s, i32 }
%struct.GVCOMMON_s = type { ptr, ptr, i32, i8, i8, ptr, ptr, ptr, i32, ptr, i32 }
%struct.dtdisc_s_ = type { i32, i32, i32, ptr, ptr, ptr }
%struct.gvplugin_active_textlayout_s = type { ptr, i32, ptr }
%struct.gvplugin_active_layout_s = type { ptr, i32, ptr, ptr }
%struct.color_s = type { %union.anon, i32 }
%union.anon = type { [4 x double] }
%struct.Agobj_s = type { %struct.Agtag_s, ptr }
%struct.Agtag_s = type { i32, i64 }
%struct.Agraphinfo_t = type { %struct.Agrec_s, ptr, ptr, %struct.boxf, [4 x %struct.pointf_s], i8, i8, i8, i8, i32, double, double, i16, ptr, ptr, ptr, ptr, i32, ptr, ptr, ptr, ptr, i16, i16, i32, ptr, ptr, ptr, ptr, ptr, i32, ptr, ptr, %struct.nlist_t, ptr, ptr, i32, i32, i8, i8, i32, i32, i32, ptr, ptr, ptr, ptr, i8, i8, i8, i8, i8 }
%struct.Agrec_s = type { ptr, ptr }
%struct.nlist_t = type { ptr, i64 }
%struct.gvlayout_engine_s = type { ptr, ptr }

@stdin = external global ptr, align 8
@.str.17 = private unnamed_addr constant [2 x i8] c"r\00", align 1
@.str.18 = private unnamed_addr constant [13 x i8] c"Agraphinfo_t\00", align 1
@.str.19 = private unnamed_addr constant [13 x i8] c"Agnodeinfo_t\00", align 1
@.str.20 = private unnamed_addr constant [13 x i8] c"Agedgeinfo_t\00", align 1

; Function Attrs: nounwind uwtable
define internal void @gvevent_read(ptr noundef %0, ptr noundef %1, ptr noundef %2) #0 {
  %4 = alloca ptr, align 8
  %5 = alloca ptr, align 8
  %6 = alloca ptr, align 8
  %7 = alloca ptr, align 8
  %8 = alloca ptr, align 8
  %9 = alloca ptr, align 8
  %10 = alloca ptr, align 8
  %11 = alloca i32, align 4
  store ptr %0, ptr %4, align 8, !tbaa !3
  store ptr %1, ptr %5, align 8, !tbaa !87
  store ptr %2, ptr %6, align 8, !tbaa !87
  call void @llvm.lifetime.start.p0(i64 8, ptr %7) #6
  call void @llvm.lifetime.start.p0(i64 8, ptr %8) #6
  call void @llvm.lifetime.start.p0(i64 8, ptr %9) #6
  store ptr null, ptr %9, align 8, !tbaa !56
  call void @llvm.lifetime.start.p0(i64 8, ptr %10) #6
  %12 = load ptr, ptr %4, align 8, !tbaa !3
  %13 = getelementptr inbounds nuw %struct.GVJ_s, ptr %12, i32 0, i32 0
  %14 = load ptr, ptr %13, align 8, !tbaa !40
  store ptr %14, ptr %8, align 8, !tbaa !88
  %15 = load ptr, ptr %5, align 8, !tbaa !87
  %16 = icmp ne ptr %15, null
  br i1 %16, label %20, label %17

17:                                               ; preds = %3
  %18 = load ptr, ptr @stdin, align 8, !tbaa !89
  %19 = call ptr @agread(ptr noundef %18, ptr noundef null)
  store ptr %19, ptr %9, align 8, !tbaa !56
  br label %31

20:                                               ; preds = %3
  %21 = load ptr, ptr %5, align 8, !tbaa !87
  %22 = call ptr @gv_fopen(ptr noundef %21, ptr noundef @.str.17)
  store ptr %22, ptr %7, align 8, !tbaa !89
  %23 = load ptr, ptr %7, align 8, !tbaa !89
  %24 = icmp ne ptr %23, null
  br i1 %24, label %26, label %25

25:                                               ; preds = %20
  store i32 1, ptr %11, align 4
  br label %92

26:                                               ; preds = %20
  %27 = load ptr, ptr %7, align 8, !tbaa !89
  %28 = call ptr @agread(ptr noundef %27, ptr noundef null)
  store ptr %28, ptr %9, align 8, !tbaa !56
  %29 = load ptr, ptr %7, align 8, !tbaa !89
  %30 = call i32 @fclose(ptr noundef %29)
  br label %31

31:                                               ; preds = %26, %17
  %32 = load ptr, ptr %9, align 8, !tbaa !56
  %33 = icmp ne ptr %32, null
  br i1 %33, label %35, label %34

34:                                               ; preds = %31
  store i32 1, ptr %11, align 4
  br label %92

35:                                               ; preds = %31
  %36 = load ptr, ptr %8, align 8, !tbaa !88
  %37 = getelementptr inbounds nuw %struct.GVC_s, ptr %36, i32 0, i32 16
  %38 = load ptr, ptr %37, align 8, !tbaa !41
  %39 = icmp ne ptr %38, null
  br i1 %39, label %40, label %67

40:                                               ; preds = %35
  %41 = load ptr, ptr %8, align 8, !tbaa !88
  %42 = getelementptr inbounds nuw %struct.GVC_s, ptr %41, i32 0, i32 17
  %43 = getelementptr inbounds nuw %struct.gvplugin_active_layout_s, ptr %42, i32 0, i32 0
  %44 = load ptr, ptr %43, align 8, !tbaa !90
  store ptr %44, ptr %10, align 8, !tbaa !91
  %45 = load ptr, ptr %10, align 8, !tbaa !91
  %46 = icmp ne ptr %45, null
  br i1 %46, label %47, label %59

47:                                               ; preds = %40
  %48 = load ptr, ptr %10, align 8, !tbaa !91
  %49 = getelementptr inbounds nuw %struct.gvlayout_engine_s, ptr %48, i32 0, i32 1
  %50 = load ptr, ptr %49, align 8, !tbaa !92
  %51 = icmp ne ptr %50, null
  br i1 %51, label %52, label %59

52:                                               ; preds = %47
  %53 = load ptr, ptr %10, align 8, !tbaa !91
  %54 = getelementptr inbounds nuw %struct.gvlayout_engine_s, ptr %53, i32 0, i32 1
  %55 = load ptr, ptr %54, align 8, !tbaa !92
  %56 = load ptr, ptr %8, align 8, !tbaa !88
  %57 = getelementptr inbounds nuw %struct.GVC_s, ptr %56, i32 0, i32 16
  %58 = load ptr, ptr %57, align 8, !tbaa !41
  call void %55(ptr noundef %58)
  br label %59

59:                                               ; preds = %52, %47, %40
  %60 = load ptr, ptr %8, align 8, !tbaa !88
  %61 = getelementptr inbounds nuw %struct.GVC_s, ptr %60, i32 0, i32 16
  %62 = load ptr, ptr %61, align 8, !tbaa !41
  call void @graph_cleanup(ptr noundef %62)
  %63 = load ptr, ptr %8, align 8, !tbaa !88
  %64 = getelementptr inbounds nuw %struct.GVC_s, ptr %63, i32 0, i32 16
  %65 = load ptr, ptr %64, align 8, !tbaa !41
  %66 = call i32 @agclose(ptr noundef %65)
  br label %67

67:                                               ; preds = %59, %35
  %68 = load ptr, ptr %9, align 8, !tbaa !56
  call void @aginit(ptr noundef %68, i32 noundef 0, ptr noundef @.str.18, i32 noundef 400, i32 noundef 1)
  %69 = load ptr, ptr %9, align 8, !tbaa !56
  call void @aginit(ptr noundef %69, i32 noundef 1, ptr noundef @.str.19, i32 noundef 472, i32 noundef 1)
  %70 = load ptr, ptr %9, align 8, !tbaa !56
  call void @aginit(ptr noundef %70, i32 noundef 2, ptr noundef @.str.20, i32 noundef 240, i32 noundef 1)
  %71 = load ptr, ptr %9, align 8, !tbaa !56
  %72 = load ptr, ptr %8, align 8, !tbaa !88
  %73 = getelementptr inbounds nuw %struct.GVC_s, ptr %72, i32 0, i32 16
  store ptr %71, ptr %73, align 8, !tbaa !41
  %74 = load ptr, ptr %8, align 8, !tbaa !88
  %75 = load ptr, ptr %9, align 8, !tbaa !56
  %76 = getelementptr inbounds nuw %struct.Agobj_s, ptr %75, i32 0, i32 1
  %77 = load ptr, ptr %76, align 8, !tbaa !58
  %78 = getelementptr inbounds nuw %struct.Agraphinfo_t, ptr %77, i32 0, i32 14
  store ptr %74, ptr %78, align 8, !tbaa !94
  %79 = load ptr, ptr %8, align 8, !tbaa !88
  %80 = load ptr, ptr %9, align 8, !tbaa !56
  %81 = load ptr, ptr %6, align 8, !tbaa !87
  %82 = call i32 @gvLayout(ptr noundef %79, ptr noundef %80, ptr noundef %81)
  %83 = icmp eq i32 %82, -1
  br i1 %83, label %84, label %85

84:                                               ; preds = %67
  store i32 1, ptr %11, align 4
  br label %92

85:                                               ; preds = %67
  %86 = load ptr, ptr %4, align 8, !tbaa !3
  %87 = getelementptr inbounds nuw %struct.GVJ_s, ptr %86, i32 0, i32 63
  store ptr null, ptr %87, align 8, !tbaa !57
  %88 = load ptr, ptr %4, align 8, !tbaa !3
  %89 = getelementptr inbounds nuw %struct.GVJ_s, ptr %88, i32 0, i32 62
  store ptr null, ptr %89, align 8, !tbaa !95
  %90 = load ptr, ptr %4, align 8, !tbaa !3
  %91 = getelementptr inbounds nuw %struct.GVJ_s, ptr %90, i32 0, i32 55
  store i8 1, ptr %91, align 1, !tbaa !33
  store i32 0, ptr %11, align 4
  br label %92

92:                                               ; preds = %85, %84, %34, %25
  call void @llvm.lifetime.end.p0(i64 8, ptr %10) #6
  call void @llvm.lifetime.end.p0(i64 8, ptr %9) #6
  call void @llvm.lifetime.end.p0(i64 8, ptr %8) #6
  call void @llvm.lifetime.end.p0(i64 8, ptr %7) #6
  %93 = load i32, ptr %11, align 4
  switch i32 %93, label %95 [
    i32 0, label %94
    i32 1, label %94
  ]

94:                                               ; preds = %92, %92
  ret void

95:                                               ; preds = %92
  unreachable
}