; Function Attrs: nounwind uwtable
define internal void @gvevent_read(ptr noundef captures(none) %0, ptr noundef %1, ptr noundef %2) #2 {
  %4 = load ptr, ptr %0, align 8, !tbaa !38
  %.not = icmp eq ptr %1, null
  br i1 %.not, label %5, label %8

5:                                                ; preds = %3
  %6 = load ptr, ptr @stdin, align 8, !tbaa !100
  %7 = tail call ptr @agread(ptr noundef %6, ptr noundef null) #11
  br label %13

8:                                                ; preds = %3
  %9 = tail call ptr @gv_fopen(ptr noundef nonnull %1, ptr noundef nonnull @.str.17) #11
  %.not33 = icmp eq ptr %9, null
  br i1 %.not33, label %37, label %10

10:                                               ; preds = %8
  %11 = tail call ptr @agread(ptr noundef nonnull %9, ptr noundef null) #11
  %12 = tail call i32 @fclose(ptr noundef nonnull %9)
  br label %13

13:                                               ; preds = %10, %5
  %.0 = phi ptr [ %11, %10 ], [ %7, %5 ]
  %.not34 = icmp eq ptr %.0, null
  br i1 %.not34, label %37, label %14

14:                                               ; preds = %13
  %15 = getelementptr inbounds nuw i8, ptr %4, i64 304
  %16 = load ptr, ptr %15, align 8, !tbaa !39
  %.not35 = icmp eq ptr %16, null
  br i1 %.not35, label %28, label %17

17:                                               ; preds = %14
  %18 = getelementptr inbounds nuw i8, ptr %4, i64 312
  %19 = load ptr, ptr %18, align 8, !tbaa !101
  %.not36 = icmp eq ptr %19, null
  br i1 %.not36, label %24, label %20

20:                                               ; preds = %17
  %21 = getelementptr inbounds nuw i8, ptr %19, i64 8
  %22 = load ptr, ptr %21, align 8, !tbaa !102
  %.not37 = icmp eq ptr %22, null
  br i1 %.not37, label %24, label %23

23:                                               ; preds = %20
  tail call void %22(ptr noundef nonnull %16) #11
  %.pre = load ptr, ptr %15, align 8, !tbaa !39
  br label %24

24:                                               ; preds = %23, %20, %17
  %25 = phi ptr [ %.pre, %23 ], [ %16, %20 ], [ %16, %17 ]
  tail call void @graph_cleanup(ptr noundef %25) #11
  %26 = load ptr, ptr %15, align 8, !tbaa !39
  %27 = tail call i32 @agclose(ptr noundef %26) #11
  br label %28

28:                                               ; preds = %24, %14
  tail call void @aginit(ptr noundef nonnull %.0, i32 noundef 0, ptr noundef nonnull @.str.18, i32 noundef 400, i32 noundef 1) #11
  tail call void @aginit(ptr noundef nonnull %.0, i32 noundef 1, ptr noundef nonnull @.str.19, i32 noundef 472, i32 noundef 1) #11
  tail call void @aginit(ptr noundef nonnull %.0, i32 noundef 2, ptr noundef nonnull @.str.20, i32 noundef 240, i32 noundef 1) #11
  store ptr %.0, ptr %15, align 8, !tbaa !39
  %29 = getelementptr inbounds nuw i8, ptr %.0, i64 16
  %30 = load ptr, ptr %29, align 8, !tbaa !55
  %31 = getelementptr inbounds nuw i8, ptr %30, i64 168
  store ptr %4, ptr %31, align 8, !tbaa !104
  %32 = tail call i32 @gvLayout(ptr noundef nonnull %4, ptr noundef nonnull %.0, ptr noundef %2) #11
  %33 = icmp eq i32 %32, -1
  br i1 %33, label %37, label %34

34:                                               ; preds = %28
  %35 = getelementptr inbounds nuw i8, ptr %0, i64 704
  %36 = getelementptr inbounds nuw i8, ptr %0, i64 665
  tail call void @llvm.memset.p0.i64(ptr noundef nonnull align 8 dereferenceable(16) %35, i8 0, i64 16, i1 false)
  store i8 1, ptr %36, align 1, !tbaa !32
  br label %37

37:                                               ; preds = %28, %13, %8, %34
  ret void
}